target datalayout = "e-m:e-p270:32:32-p271:32:32-p272:64:64-i64:64-i128:128-f80:128-n8:16:32:64-S128"
target triple = "x86_64-unknown-linux-gnu"

%"class.spacer::sym_mux" = type { ptr, %class.obj_map, %class.obj_map.0 }
%class.obj_map = type { %class.core_hashtable }
%class.core_hashtable = type <{ ptr, i32, i32, i32, [4 x i8] }>
%class.obj_map.0 = type { %class.core_hashtable.1 }
%class.core_hashtable.1 = type <{ ptr, i32, i32, i32, [4 x i8] }>
%struct.obj_hash = type { i8 }
%struct.default_eq = type { i8 }
%struct.obj_hash.2 = type { i8 }
%struct.default_eq.3 = type { i8 }
%"struct.obj_map<func_decl, spacer::sym_mux::sym_mux_entry *>::key_data" = type { ptr, ptr }
%"class.obj_map<func_decl, spacer::sym_mux::sym_mux_entry *>::obj_map_entry" = type { %"struct.obj_map<func_decl, spacer::sym_mux::sym_mux_entry *>::key_data" }
%"struct.std::pair" = type <{ ptr, i32, [4 x i8] }>
%"struct.obj_map<func_decl, std::pair<spacer::sym_mux::sym_mux_entry *, unsigned int>>::key_data" = type { ptr, %"struct.std::pair" }
%"class.obj_map<func_decl, std::pair<spacer::sym_mux::sym_mux_entry *, unsigned int>>::obj_map_entry" = type { %"struct.obj_map<func_decl, std::pair<spacer::sym_mux::sym_mux_entry *, unsigned int>>::key_data" }

; Function Attrs: mustprogress nounwind uwtable
define linkonce_odr hidden void @_ZNSt4pairIPN6spacer7sym_mux13sym_mux_entryEjEC2IS3_jTnNSt9enable_ifIXsr6__and_ISt37__is_implicitly_default_constructibleIT_ES7_IT0_EEE5valueEbE4typeELb1EEEv(ptr noundef nonnull align 8 dereferenceable(12) %this) unnamed_addr #5 comdat align 2 {
entry:
  %this.addr = alloca ptr, align 8
  store ptr %this, ptr %this.addr, align 8
  %this1 = load ptr, ptr %this.addr, align 8
  %first = getelementptr inbounds %"struct.std::pair", ptr %this1, i32 0, i32 0
  store ptr null, ptr %first, align 8
  %second = getelementptr inbounds %"struct.std::pair", ptr %this1, i32 0, i32 1
  store i32 0, ptr %second, align 8
  ret void
}

; Function Attrs: mustprogress uwtable
define linkonce_odr hidden void @_ZN7obj_mapI9func_declSt4pairIPN6spacer7sym_mux13sym_mux_entryEjEE8key_dataC2Ev(ptr noundef nonnull align 8 dereferenceable(24) %this) unnamed_addr #4 comdat align 2 {
entry:
  %this.addr = alloca ptr, align 8
  store ptr %this, ptr %this.addr, align 8
  %this1 = load ptr, ptr %this.addr, align 8
  %m_key = getelementptr inbounds %"struct.obj_map<func_decl, std::pair<spacer::sym_mux::sym_mux_entry *, unsigned int>>::key_data", ptr %this1, i32 0, i32 0
  store ptr null, ptr %m_key, align 8
  %m_value = getelementptr inbounds %"struct.obj_map<func_decl, std::pair<spacer::sym_mux::sym_mux_entry *, unsigned int>>::key_data", ptr %this1, i32 0, i32 1
  call void @_ZNSt4pairIPN6spacer7sym_mux13sym_mux_entryEjEC2IS3_jTnNSt9enable_ifIXsr6__and_ISt37__is_implicitly_default_constructibleIT_ES7_IT0_EEE5valueEbE4typeELb1EEEv(ptr noundef nonnull align 8 dereferenceable(12) %m_value)
  ret void
}

; Function Attrs: mustprogress nounwind uwtable
define linkonce_odr hidden void @_ZN7obj_mapI9func_declPN6spacer7sym_mux13sym_mux_entryEE8key_dataC2Ev(ptr noundef nonnull align 8 dereferenceable(16) %this) unnamed_addr #5 comdat align 2 {
entry:
  %this.addr = alloca ptr, align 8
  store ptr %this, ptr %this.addr, align 8
  %this1 = load ptr, ptr %this.addr, align 8
  %m_key = getelementptr inbounds %"struct.obj_map<func_decl, spacer::sym_mux::sym_mux_entry *>::key_data", ptr %this1, i32 0, i32 0
  store ptr null, ptr %m_key, align 8
  %m_value = getelementptr inbounds %"struct.obj_map<func_decl, spacer::sym_mux::sym_mux_entry *>::key_data", ptr %this1, i32 0, i32 1
  store ptr null, ptr %m_value, align 8
  ret void
}

; Function Attrs: mustprogress uwtable
define linkonce_odr hidden void @_ZN7obj_mapI9func_declSt4pairIPN6spacer7sym_mux13sym_mux_entryEjEE13obj_map_entryC2Ev(ptr noundef nonnull align 8 dereferenceable(24) %this) unnamed_addr #4 comdat align 2 {
entry:
  %this.addr = alloca ptr, align 8
  store ptr %this, ptr %this.addr, align 8
  %this1 = load ptr, ptr %this.addr, align 8
  %m_data = getelementptr inbounds %"class.obj_map<func_decl, std::pair<spacer::sym_mux::sym_mux_entry *, unsigned int>>::obj_map_entry", ptr %this1, i32 0, i32 0
  call void @_ZN7obj_mapI9func_declSt4pairIPN6spacer7sym_mux13sym_mux_entryEjEE8key_dataC2Ev(ptr noundef nonnull align 8 dereferenceable(24) %m_data)
  ret void
}

; Function Attrs: mustprogress uwtable
define linkonce_odr hidden void @_ZN7obj_mapI9func_declPN6spacer7sym_mux13sym_mux_entryEE13obj_map_entryC2Ev(ptr noundef nonnull align 8 dereferenceable(16) %this) unnamed_addr #4 comdat align 2 {
entry:
  %this.addr = alloca ptr, align 8
  store ptr %this, ptr %this.addr, align 8
  %this1 = load ptr, ptr %this.addr, align 8
  %m_data = getelementptr inbounds %"class.obj_map<func_decl, spacer::sym_mux::sym_mux_entry *>::obj_map_entry", ptr %this1, i32 0, i32 0
  call void @_ZN7obj_mapI9func_declPN6spacer7sym_mux13sym_mux_entryEE8key_dataC2Ev(ptr noundef nonnull align 8 dereferenceable(16) %m_data)
  ret void
}

; Function Attrs: mustprogress uwtable
define linkonce_odr hidden noalias noundef ptr @_Z10alloc_vectIN7obj_mapI9func_declSt4pairIPN6spacer7sym_mux13sym_mux_entryEjEE13obj_map_entryEEPT_j(i32 noundef %sz) #4 comdat {
entry:
  %sz.addr = alloca i32, align 4
  %r = alloca ptr, align 8
  %curr = alloca ptr, align 8
  %i = alloca i32, align 4
  store i32 %sz, ptr %sz.addr, align 4
  %0 = load i32, ptr %sz.addr, align 4
  %conv = zext i32 %0 to i64
  %mul = mul i64 24, %conv
  %call = call noalias noundef ptr @_ZN6memory8allocateEm(i64 noundef %mul)
  store ptr %call, ptr %r, align 8
  %1 = load ptr, ptr %r, align 8
  store ptr %1, ptr %curr, align 8
  store i32 0, ptr %i, align 4
  br label %for.cond

for.cond:                                         ; preds = %for.inc, %entry
  %2 = load i32, ptr %i, align 4
  %3 = load i32, ptr %sz.addr, align 4
  %cmp = icmp ult i32 %2, %3
  br i1 %cmp, label %for.body, label %for.end

for.body:                                         ; preds = %for.cond
  %4 = load ptr, ptr %curr, align 8
  call void @llvm.memset.p0.i64(ptr align 8 %4, i8 0, i64 24, i1 false)
  call void @_ZN7obj_mapI9func_declSt4pairIPN6spacer7sym_mux13sym_mux_entryEjEE13obj_map_entryC2Ev(ptr noundef nonnull align 8 dereferenceable(24) %4)
  br label %for.inc

for.inc:                                          ; preds = %for.body
  %5 = load i32, ptr %i, align 4
  %inc = add i32 %5, 1
  store i32 %inc, ptr %i, align 4
  %6 = load ptr, ptr %curr, align 8
  %incdec.ptr = getelementptr inbounds %"class.obj_map<func_decl, std::pair<spacer::sym_mux::sym_mux_entry *, unsigned int>>::obj_map_entry", ptr %6, i32 1
  store ptr %incdec.ptr, ptr %curr, align 8
  br label %for.cond, !llvm.loop !12

for.end:                                          ; preds = %for.cond
  %7 = load ptr, ptr %r, align 8
  ret ptr %7
}

; Function Attrs: mustprogress uwtable
define linkonce_odr hidden noalias noundef ptr @_Z10alloc_vectIN7obj_mapI9func_declPN6spacer7sym_mux13sym_mux_entryEE13obj_map_entryEEPT_j(i32 noundef %sz) #4 comdat {
entry:
  %sz.addr = alloca i32, align 4
  %r = alloca ptr, align 8
  %curr = alloca ptr, align 8
  %i = alloca i32, align 4
  store i32 %sz, ptr %sz.addr, align 4
  %0 = load i32, ptr %sz.addr, align 4
  %conv = zext i32 %0 to i64
  %mul = mul i64 16, %conv
  %call = call noalias noundef ptr @_ZN6memory8allocateEm(i64 noundef %mul)
  store ptr %call, ptr %r, align 8
  %1 = load ptr, ptr %r, align 8
  store ptr %1, ptr %curr, align 8
  store i32 0, ptr %i, align 4
  br label %for.cond

for.cond:                                         ; preds = %for.inc, %entry
  %2 = load i32, ptr %i, align 4
  %3 = load i32, ptr %sz.addr, align 4
  %cmp = icmp ult i32 %2, %3
  br i1 %cmp, label %for.body, label %for.end

for.body:                                         ; preds = %for.cond
  %4 = load ptr, ptr %curr, align 8
  call void @llvm.memset.p0.i64(ptr align 8 %4, i8 0, i64 16, i1 false)
  call void @_ZN7obj_mapI9func_declPN6spacer7sym_mux13sym_mux_entryEE13obj_map_entryC2Ev(ptr noundef nonnull align 8 dereferenceable(16) %4)
  br label %for.inc

for.inc:                                          ; preds = %for.body
  %5 = load i32, ptr %i, align 4
  %inc = add i32 %5, 1
  store i32 %inc, ptr %i, align 4
  %6 = load ptr, ptr %curr, align 8
  %incdec.ptr = getelementptr inbounds %"class.obj_map<func_decl, spacer::sym_mux::sym_mux_entry *>::obj_map_entry", ptr %6, i32 1
  store ptr %incdec.ptr, ptr %curr, align 8
  br label %for.cond, !llvm.loop !11

for.end:                                          ; preds = %for.cond
  %7 = load ptr, ptr %r, align 8
  ret ptr %7
}

; Function Attrs: mustprogress uwtable
define linkonce_odr hidden noundef ptr @_ZN14core_hashtableIN7obj_mapI9func_declSt4pairIPN6spacer7sym_mux13sym_mux_entryEjEE13obj_map_entryE8obj_hashINS8_8key_dataEE10default_eqISB_EE11alloc_tableEj(ptr noundef nonnull align 8 dereferenceable(20) %this, i32 noundef %size) #4 comdat align 2 {
entry:
  %this.addr = alloca ptr, align 8
  %size.addr = alloca i32, align 4
  %entries = alloca ptr, align 8
  store ptr %this, ptr %this.addr, align 8
  store i32 %size, ptr %size.addr, align 4
  %0 = load i32, ptr %size.addr, align 4
  %call = call noalias noundef ptr @_Z10alloc_vectIN7obj_mapI9func_declSt4pairIPN6spacer7sym_mux13sym_mux_entryEjEE13obj_map_entryEEPT_j(i32 noundef %0)
  store ptr %call, ptr %entries, align 8
  %1 = load ptr, ptr %entries, align 8
  ret ptr %1
}

; Function Attrs: mustprogress uwtable
define linkonce_odr hidden noundef ptr @_ZN14core_hashtableIN7obj_mapI9func_declPN6spacer7sym_mux13sym_mux_entryEE13obj_map_entryE8obj_hashINS6_8key_dataEE10default_eqIS9_EE11alloc_tableEj(ptr noundef nonnull align 8 dereferenceable(20) %this, i32 noundef %size) #4 comdat align 2 {
entry:
  %this.addr = alloca ptr, align 8
  %size.addr = alloca i32, align 4
  %entries = alloca ptr, align 8
  store ptr %this, ptr %this.addr, align 8
  store i32 %size, ptr %size.addr, align 4
  %0 = load i32, ptr %size.addr, align 4
  %call = call noalias noundef ptr @_Z10alloc_vectIN7obj_mapI9func_declPN6spacer7sym_mux13sym_mux_entryEE13obj_map_entryEEPT_j(i32 noundef %0)
  store ptr %call, ptr %entries, align 8
  %1 = load ptr, ptr %entries, align 8
  ret ptr %1
}

; Function Attrs: mustprogress uwtable
define linkonce_odr hidden void @_ZN14core_hashtableIN7obj_mapI9func_declSt4pairIPN6spacer7sym_mux13sym_mux_entryEjEE13obj_map_entryE8obj_hashINS8_8key_dataEE10default_eqISB_EEC2EjRKSC_RKSE_(ptr noundef nonnull align 8 dereferenceable(20) %this, i32 noundef %initial_capacity, ptr noundef nonnull align 1 dereferenceable(1) %h, ptr noundef nonnull align 1 dereferenceable(1) %e) unnamed_addr #4 comdat align 2 {
entry:
  %this.addr = alloca ptr, align 8
  %initial_capacity.addr = alloca i32, align 4
  %h.addr = alloca ptr, align 8
  %e.addr = alloca ptr, align 8
  store ptr %this, ptr %this.addr, align 8
  store i32 %initial_capacity, ptr %initial_capacity.addr, align 4
  store ptr %h, ptr %h.addr, align 8
  store ptr %e, ptr %e.addr, align 8
  %this1 = load ptr, ptr %this.addr, align 8
  %0 = load i32, ptr %initial_capacity.addr, align 4
  %call = call noundef ptr @_ZN14core_hashtableIN7obj_mapI9func_declSt4pairIPN6spacer7sym_mux13sym_mux_entryEjEE13obj_map_entryE8obj_hashINS8_8key_dataEE10default_eqISB_EE11alloc_tableEj(ptr noundef nonnull align 8 dereferenceable(20) %this1, i32 noundef %0)
  %m_table = getelementptr inbounds %class.core_hashtable.1, ptr %this1, i32 0, i32 0
  store ptr %call, ptr %m_table, align 8
  %1 = load i32, ptr %initial_capacity.addr, align 4
  %m_capacity = getelementptr inbounds %class.core_hashtable.1, ptr %this1, i32 0, i32 1
  store i32 %1, ptr %m_capacity, align 8
  %m_size = getelementptr inbounds %class.core_hashtable.1, ptr %this1, i32 0, i32 2
  store i32 0, ptr %m_size, align 4
  %m_num_deleted = getelementptr inbounds %class.core_hashtable.1, ptr %this1, i32 0, i32 3
  store i32 0, ptr %m_num_deleted, align 8
  ret void
}

; Function Attrs: mustprogress uwtable
define linkonce_odr hidden void @_ZN14core_hashtableIN7obj_mapI9func_declPN6spacer7sym_mux13sym_mux_entryEE13obj_map_entryE8obj_hashINS6_8key_dataEE10default_eqIS9_EEC2EjRKSA_RKSC_(ptr noundef nonnull align 8 dereferenceable(20) %this, i32 noundef %initial_capacity, ptr noundef nonnull align 1 dereferenceable(1) %h, ptr noundef nonnull align 1 dereferenceable(1) %e) unnamed_addr #4 comdat align 2 {
entry:
  %this.addr = alloca ptr, align 8
  %initial_capacity.addr = alloca i32, align 4
  %h.addr = alloca ptr, align 8
  %e.addr = alloca ptr, align 8
  store ptr %this, ptr %this.addr, align 8
  store i32 %initial_capacity, ptr %initial_capacity.addr, align 4
  store ptr %h, ptr %h.addr, align 8
  store ptr %e, ptr %e.addr, align 8
  %this1 = load ptr, ptr %this.addr, align 8
  %0 = load i32, ptr %initial_capacity.addr, align 4
  %call = call noundef ptr @_ZN14core_hashtableIN7obj_mapI9func_declPN6spacer7sym_mux13sym_mux_entryEE13obj_map_entryE8obj_hashINS6_8key_dataEE10default_eqIS9_EE11alloc_tableEj(ptr noundef nonnull align 8 dereferenceable(20) %this1, i32 noundef %0)
  %m_table = getelementptr inbounds %class.core_hashtable, ptr %this1, i32 0, i32 0
  store ptr %call, ptr %m_table, align 8
  %1 = load i32, ptr %initial_capacity.addr, align 4
  %m_capacity = getelementptr inbounds %class.core_hashtable, ptr %this1, i32 0, i32 1
  store i32 %1, ptr %m_capacity, align 8
  %m_size = getelementptr inbounds %class.core_hashtable, ptr %this1, i32 0, i32 2
  store i32 0, ptr %m_size, align 4
  %m_num_deleted = getelementptr inbounds %class.core_hashtable, ptr %this1, i32 0, i32 3
  store i32 0, ptr %m_num_deleted, align 8
  ret void
}

; Function Attrs: mustprogress uwtable
define linkonce_odr hidden void @_ZN7obj_mapI9func_declSt4pairIPN6spacer7sym_mux13sym_mux_entryEjEEC2Ev(ptr noundef nonnull align 8 dereferenceable(24) %this) unnamed_addr #4 comdat align 2 {
entry:
  %this.addr = alloca ptr, align 8
  %ref.tmp = alloca %struct.obj_hash.2, align 1
  %ref.tmp2 = alloca %struct.default_eq.3, align 1
  store ptr %this, ptr %this.addr, align 8
  %this1 = load ptr, ptr %this.addr, align 8
  %m_table = getelementptr inbounds %class.obj_map.0, ptr %this1, i32 0, i32 0
  call void @_ZN14core_hashtableIN7obj_mapI9func_declSt4pairIPN6spacer7sym_mux13sym_mux_entryEjEE13obj_map_entryE8obj_hashINS8_8key_dataEE10default_eqISB_EEC2EjRKSC_RKSE_(ptr noundef nonnull align 8 dereferenceable(20) %m_table, i32 noundef 8, ptr noundef nonnull align 1 dereferenceable(1) %ref.tmp, ptr noundef nonnull align 1 dereferenceable(1) %ref.tmp2)
  ret void
}

; Function Attrs: mustprogress uwtable
define linkonce_odr hidden void @_ZN7obj_mapI9func_declPN6spacer7sym_mux13sym_mux_entryEEC2Ev(ptr noundef nonnull align 8 dereferenceable(24) %this) unnamed_addr #4 comdat align 2 {
entry:
  %this.addr = alloca ptr, align 8
  %ref.tmp = alloca %struct.obj_hash, align 1
  %ref.tmp2 = alloca %struct.default_eq, align 1
  store ptr %this, ptr %this.addr, align 8
  %this1 = load ptr, ptr %this.addr, align 8
  %m_table = getelementptr inbounds %class.obj_map, ptr %this1, i32 0, i32 0
  call void @_ZN14core_hashtableIN7obj_mapI9func_declPN6spacer7sym_mux13sym_mux_entryEE13obj_map_entryE8obj_hashINS6_8key_dataEE10default_eqIS9_EEC2EjRKSA_RKSC_(ptr noundef nonnull align 8 dereferenceable(20) %m_table, i32 noundef 8, ptr noundef nonnull align 1 dereferenceable(1) %ref.tmp, ptr noundef nonnull align 1 dereferenceable(1) %ref.tmp2)
  ret void
}

; Function Attrs: mustprogress uwtable
define hidden void @_ZN6spacer7sym_muxC2ER11ast_manager(ptr noundef nonnull align 8 dereferenceable(56) %this, ptr noundef nonnull align 8 dereferenceable(976) %m) unnamed_addr #4 align 2 personality ptr @__gxx_personality_v0 {
entry:
  %this.addr = alloca ptr, align 8
  %m.addr = alloca ptr, align 8
  %exn.slot = alloca ptr, align 8
  %ehselector.slot = alloca i32, align 4
  store ptr %this, ptr %this.addr, align 8
  store ptr %m, ptr %m.addr, align 8
  %this1 = load ptr, ptr %this.addr, align 8
  %m2 = getelementptr inbounds %"class.spacer::sym_mux", ptr %this1, i32 0, i32 0
  %0 = load ptr, ptr %m.addr, align 8
  store ptr %0, ptr %m2, align 8
  %m_entries = getelementptr inbounds %"class.spacer::sym_mux", ptr %this1, i32 0, i32 1
  call void @_ZN7obj_mapI9func_declPN6spacer7sym_mux13sym_mux_entryEEC2Ev(ptr noundef nonnull align 8 dereferenceable(24) %m_entries)
  %m_muxes = getelementptr inbounds %"class.spacer::sym_mux", ptr %this1, i32 0, i32 2
  invoke void @_ZN7obj_mapI9func_declSt4pairIPN6spacer7sym_mux13sym_mux_entryEjEEC2Ev(ptr noundef nonnull align 8 dereferenceable(24) %m_muxes)
          to label %invoke.cont unwind label %lpad

invoke.cont:                                      ; preds = %entry
  ret void

lpad:                                             ; preds = %entry
  %1 = landingpad { ptr, i32 }
          cleanup
  %2 = extractvalue { ptr, i32 } %1, 0
  store ptr %2, ptr %exn.slot, align 8
  %3 = extractvalue { ptr, i32 } %1, 1
  store i32 %3, ptr %ehselector.slot, align 4
  call void @_ZN7obj_mapI9func_declPN6spacer7sym_mux13sym_mux_entryEED2Ev(ptr noundef nonnull align 8 dereferenceable(24) %m_entries) #3
  br label %eh.resume

eh.resume:                                        ; preds = %lpad
  %exn = load ptr, ptr %exn.slot, align 8
  %sel = load i32, ptr %ehselector.slot, align 4
  %lpad.val = insertvalue { ptr, i32 } poison, ptr %exn, 0
  %lpad.val3 = insertvalue { ptr, i32 } %lpad.val, i32 %sel, 1
  resume { ptr, i32 } %lpad.val3
}