; Function Attrs: mustprogress uwtable
define hidden void @_ZN6spacer7sym_muxC2ER11ast_manager(ptr noundef nonnull align 8 dereferenceable(56) %this, ptr noundef nonnull align 8 dereferenceable(976) %m) unnamed_addr #3 align 2 personality ptr @__gxx_personality_v0 {
entry:
  store ptr %m, ptr %this, align 8
  %m_entries = getelementptr inbounds i8, ptr %this, i64 8
  %call.i.i.i.i = tail call noalias noundef ptr @_ZN6memory8allocateEm(i64 noundef 128)
  tail call void @llvm.memset.p0.i64(ptr noundef nonnull align 8 dereferenceable(128) %call.i.i.i.i, i8 0, i64 128, i1 false)
  store ptr %call.i.i.i.i, ptr %m_entries, align 8
  %m_capacity.i.i = getelementptr inbounds i8, ptr %this, i64 16
  store i32 8, ptr %m_capacity.i.i, align 8
  %m_size.i.i = getelementptr inbounds i8, ptr %this, i64 20
  store i32 0, ptr %m_size.i.i, align 4
  %m_num_deleted.i.i = getelementptr inbounds i8, ptr %this, i64 24
  store i32 0, ptr %m_num_deleted.i.i, align 8
  %call.i.i.i.i15 = invoke noalias noundef ptr @_ZN6memory8allocateEm(i64 noundef 192)
          to label %invoke.cont unwind label %lpad

invoke.cont:                                      ; preds = %entry
  %m_muxes = getelementptr inbounds i8, ptr %this, i64 32
  tail call void @llvm.memset.p0.i64(ptr noundef nonnull align 8 dereferenceable(192) %call.i.i.i.i15, i8 0, i64 192, i1 false)
  store ptr %call.i.i.i.i15, ptr %m_muxes, align 8
  %m_capacity.i.i2 = getelementptr inbounds i8, ptr %this, i64 40
  store i32 8, ptr %m_capacity.i.i2, align 8
  %m_size.i.i3 = getelementptr inbounds i8, ptr %this, i64 44
  store i32 0, ptr %m_size.i.i3, align 4
  %m_num_deleted.i.i4 = getelementptr inbounds i8, ptr %this, i64 48
  store i32 0, ptr %m_num_deleted.i.i4, align 8
  ret void

lpad:                                             ; preds = %entry
  %0 = landingpad { ptr, i32 }
          cleanup
  tail call void @_ZN7obj_mapI9func_declPN6spacer7sym_mux13sym_mux_entryEED2Ev(ptr noundef nonnull align 8 dereferenceable(24) %m_entries) #16
  resume { ptr, i32 } %0
}